#include <math.h>
#include <stdio.h>
#include <stdlib.h>
#include <string.h>

int main(){
	int sz[8][8];
	int i,k,row;
	char a;
	int ROW,COL,m=0,n=0,j=0;
	scanf("%d%c%d",&ROW,&a,&COL);
	for(i=0;i<ROW;i++){
		for(k=0;k<COL;k++){
			scanf("%d",&sz[i][k]);
		}
	}
	for(row=0;row<ROW;row++){
		for(k=0;k<COL;k++){
			 

			if(sz[row][m]<sz[row][k]){
               m=k;
			}
		}
			for(i=0;i<ROW;i++){
				if(sz[n][m]>sz[i][m]){
					n=i;
				}
			}
				if(row==n){
					printf("%d+%d",row,m);
					j++;
				}
				}
	if(j==0){
		printf("No\n");
	}
	return 0;
}
	