; ModuleID = '35/1008.c'
source_filename = "35/1008.c"
target datalayout = "e-m:e-p270:32:32-p271:32:32-p272:64:64-i64:64-f80:128-n8:16:32:64-S128"
target triple = "x86_64-pc-linux-gnu"

@.str = private unnamed_addr constant [7 x i8] c"%d%c%d\00", align 1
@.str.1 = private unnamed_addr constant [3 x i8] c"%d\00", align 1
@.str.2 = private unnamed_addr constant [6 x i8] c"%d+%d\00", align 1
@.str.3 = private unnamed_addr constant [4 x i8] c"No\0A\00", align 1

; Function Attrs: noinline nounwind uwtable
define dso_local i32 @main() #0 {
  %1 = alloca i32, align 4
  %2 = alloca [8 x [8 x i32]], align 16
  %3 = alloca i32, align 4
  %4 = alloca i32, align 4
  %5 = alloca i32, align 4
  %6 = alloca i8, align 1
  %7 = alloca i32, align 4
  %8 = alloca i32, align 4
  %9 = alloca i32, align 4
  %10 = alloca i32, align 4
  %11 = alloca i32, align 4
  store i32 0, i32* %1, align 4
  store i32 0, i32* %9, align 4
  store i32 0, i32* %10, align 4
  store i32 0, i32* %11, align 4
  %12 = call i32 (i8*, ...) @__isoc99_scanf(i8* getelementptr inbounds ([7 x i8], [7 x i8]* @.str, i64 0, i64 0), i32* %7, i8* %6, i32* %8)
  store i32 0, i32* %3, align 4
  br label %13

13:                                               ; preds = %34, %0
  %14 = load i32, i32* %3, align 4
  %15 = load i32, i32* %7, align 4
  %16 = icmp slt i32 %14, %15
  br i1 %16, label %17, label %37

17:                                               ; preds = %13
  store i32 0, i32* %4, align 4
  br label %18

18:                                               ; preds = %30, %17
  %19 = load i32, i32* %4, align 4
  %20 = load i32, i32* %8, align 4
  %21 = icmp slt i32 %19, %20
  br i1 %21, label %22, label %33

22:                                               ; preds = %18
  %23 = load i32, i32* %3, align 4
  %24 = sext i32 %23 to i64
  %25 = getelementptr inbounds [8 x [8 x i32]], [8 x [8 x i32]]* %2, i64 0, i64 %24
  %26 = load i32, i32* %4, align 4
  %27 = sext i32 %26 to i64
  %28 = getelementptr inbounds [8 x i32], [8 x i32]* %25, i64 0, i64 %27
  %29 = call i32 (i8*, ...) @__isoc99_scanf(i8* getelementptr inbounds ([3 x i8], [3 x i8]* @.str.1, i64 0, i64 0), i32* %28)
  br label %30

30:                                               ; preds = %22
  %31 = load i32, i32* %4, align 4
  %32 = add nsw i32 %31, 1
  store i32 %32, i32* %4, align 4
  br label %18

33:                                               ; preds = %18
  br label %34

34:                                               ; preds = %33
  %35 = load i32, i32* %3, align 4
  %36 = add nsw i32 %35, 1
  store i32 %36, i32* %3, align 4
  br label %13

37:                                               ; preds = %13
  store i32 0, i32* %5, align 4
  br label %38

38:                                               ; preds = %107, %37
  %39 = load i32, i32* %5, align 4
  %40 = load i32, i32* %7, align 4
  %41 = icmp slt i32 %39, %40
  br i1 %41, label %42, label %110

42:                                               ; preds = %38
  store i32 0, i32* %4, align 4
  br label %43

43:                                               ; preds = %66, %42
  %44 = load i32, i32* %4, align 4
  %45 = load i32, i32* %8, align 4
  %46 = icmp slt i32 %44, %45
  br i1 %46, label %47, label %69

47:                                               ; preds = %43
  %48 = load i32, i32* %5, align 4
  %49 = sext i32 %48 to i64
  %50 = getelementptr inbounds [8 x [8 x i32]], [8 x [8 x i32]]* %2, i64 0, i64 %49
  %51 = load i32, i32* %9, align 4
  %52 = sext i32 %51 to i64
  %53 = getelementptr inbounds [8 x i32], [8 x i32]* %50, i64 0, i64 %52
  %54 = load i32, i32* %53, align 4
  %55 = load i32, i32* %5, align 4
  %56 = sext i32 %55 to i64
  %57 = getelementptr inbounds [8 x [8 x i32]], [8 x [8 x i32]]* %2, i64 0, i64 %56
  %58 = load i32, i32* %4, align 4
  %59 = sext i32 %58 to i64
  %60 = getelementptr inbounds [8 x i32], [8 x i32]* %57, i64 0, i64 %59
  %61 = load i32, i32* %60, align 4
  %62 = icmp slt i32 %54, %61
  br i1 %62, label %63, label %65

63:                                               ; preds = %47
  %64 = load i32, i32* %4, align 4
  store i32 %64, i32* %9, align 4
  br label %65

65:                                               ; preds = %63, %47
  br label %66

66:                                               ; preds = %65
  %67 = load i32, i32* %4, align 4
  %68 = add nsw i32 %67, 1
  store i32 %68, i32* %4, align 4
  br label %43

69:                                               ; preds = %43
  store i32 0, i32* %3, align 4
  br label %70

70:                                               ; preds = %93, %69
  %71 = load i32, i32* %3, align 4
  %72 = load i32, i32* %7, align 4
  %73 = icmp slt i32 %71, %72
  br i1 %73, label %74, label %96

74:                                               ; preds = %70
  %75 = load i32, i32* %10, align 4
  %76 = sext i32 %75 to i64
  %77 = getelementptr inbounds [8 x [8 x i32]], [8 x [8 x i32]]* %2, i64 0, i64 %76
  %78 = load i32, i32* %9, align 4
  %79 = sext i32 %78 to i64
  %80 = getelementptr inbounds [8 x i32], [8 x i32]* %77, i64 0, i64 %79
  %81 = load i32, i32* %80, align 4
  %82 = load i32, i32* %3, align 4
  %83 = sext i32 %82 to i64
  %84 = getelementptr inbounds [8 x [8 x i32]], [8 x [8 x i32]]* %2, i64 0, i64 %83
  %85 = load i32, i32* %9, align 4
  %86 = sext i32 %85 to i64
  %87 = getelementptr inbounds [8 x i32], [8 x i32]* %84, i64 0, i64 %86
  %88 = load i32, i32* %87, align 4
  %89 = icmp sgt i32 %81, %88
  br i1 %89, label %90, label %92

90:                                               ; preds = %74
  %91 = load i32, i32* %3, align 4
  store i32 %91, i32* %10, align 4
  br label %92

92:                                               ; preds = %90, %74
  br label %93

93:                                               ; preds = %92
  %94 = load i32, i32* %3, align 4
  %95 = add nsw i32 %94, 1
  store i32 %95, i32* %3, align 4
  br label %70

96:                                               ; preds = %70
  %97 = load i32, i32* %5, align 4
  %98 = load i32, i32* %10, align 4
  %99 = icmp eq i32 %97, %98
  br i1 %99, label %100, label %106

100:                                              ; preds = %96
  %101 = load i32, i32* %5, align 4
  %102 = load i32, i32* %9, align 4
  %103 = call i32 (i8*, ...) @printf(i8* getelementptr inbounds ([6 x i8], [6 x i8]* @.str.2, i64 0, i64 0), i32 %101, i32 %102)
  %104 = load i32, i32* %11, align 4
  %105 = add nsw i32 %104, 1
  store i32 %105, i32* %11, align 4
  br label %106

106:                                              ; preds = %100, %96
  br label %107

107:                                              ; preds = %106
  %108 = load i32, i32* %5, align 4
  %109 = add nsw i32 %108, 1
  store i32 %109, i32* %5, align 4
  br label %38

110:                                              ; preds = %38
  %111 = load i32, i32* %11, align 4
  %112 = icmp eq i32 %111, 0
  br i1 %112, label %113, label %115

113:                                              ; preds = %110
  %114 = call i32 (i8*, ...) @printf(i8* getelementptr inbounds ([4 x i8], [4 x i8]* @.str.3, i64 0, i64 0))
  br label %115

115:                                              ; preds = %113, %110
  ret i32 0
}

declare dso_local i32 @__isoc99_scanf(i8*, ...) #1

declare dso_local i32 @printf(i8*, ...) #1


!llvm.module.flags = !{!0}
!llvm.ident = !{!1}

!0 = !{i32 1, !"wchar_size", i32 4}
!1 = !{!"clang version 10.0.0-4ubuntu1 "}
